(dp0
S'No Skills'
p1
(ichar
Character
p2
(dp3
S'skill_dict'
p4
(dp5
S'Heavy Weapon Capacity'
p6
(ichar
Skill
p7
(dp8
S'skill_category'
p9
S'handheld_weapon_upgrades'
p10
sS'name'
p11
g6
sS'level'
p12
I0
sS'prerequisites'
p13
(lp14
(S'Weaponry'
p15
I3
tp16
asS'effect'
p17
F0.05
sS'multiplier'
p18
I3
sbsS'Large Missile Turret Operation'
p19
(ichar
Skill
p20
(dp21
g9
S'turret_operation'
p22
sg11
g19
sg12
I0
sg13
(lp23
sg17
F0.03
sg18
I3
sbsS'Armor Repair Systems'
p24
(ichar
Skill
p25
(dp26
g9
S'mechanics'
p27
sg11
g24
sg12
I0
sg13
(lp28
(S'Field Mechanics'
p29
I2
tp30
asg17
F0.03
sg18
I2
sbsS'Small Hybrid Turret Proficiency'
p31
(ichar
Skill
p32
(dp33
g9
g22
sg11
g31
sg12
I0
sg13
(lp34
sg17
F0.02
sg18
I3
sbsS'Heavy Machine Gun Operation'
p35
(ichar
Skill
p36
(dp37
g9
S'handheld_weapons'
p38
sg11
g35
sg12
I0
sg13
(lp39
(S'Weaponry'
p40
I4
tp41
asg17
F-0.03
sg18
I2
sbsS'Armor Adaptation'
p42
(ichar
Skill
p43
(dp44
g9
g27
sg11
g42
sg12
I0
sg13
(lp45
(S'Field Mechanics'
p46
I5
tp47
asg17
F-0.03
sg18
I5
sbsS'Endurance'
p48
(ichar
Skill
p49
(dp50
g9
S'dropsuit_upgrades'
p51
sg11
g48
sg12
I0
sg13
(lp52
(S'Dropsuit Command'
p53
I3
tp54
asg17
F0.05
sg18
I3
sbsS'Scrambler Pistol Operation'
p55
(ichar
Skill
p56
(dp57
g9
g38
sg11
g55
sg12
I0
sg13
(lp58
(S'Weaponry'
p59
I1
tp60
asg17
F1.0
sg18
I2
sbsS'Assault Rifle Operation'
p61
(ichar
Skill
p62
(dp63
g9
g38
sg11
g61
sg12
I0
sg13
(lp64
(S'Weaponry'
p65
I1
tp66
asg17
F-0.05
sg18
I2
sbsS'Small Hybrid Turret Operation'
p67
(ichar
Skill
p68
(dp69
g9
g22
sg11
g67
sg12
I0
sg13
(lp70
sg17
F0.03
sg18
I1
sbsS'Profile Dampening'
p71
(ichar
Skill
p72
(dp73
g9
S'electronics'
p74
sg11
g71
sg12
I0
sg13
(lp75
(S'Sensor Upgrades'
p76
I2
tp77
asg17
F-0.05
sg18
I2
sbsS'Light Weapon Upgrades Proficiency'
p78
(ichar
Skill
p79
(dp80
g9
g10
sg11
g78
sg12
I0
sg13
(lp81
(S'Light Weaponry Upgrades'
p82
I5
tp83
asg17
F-0.03
sg18
I5
sbsS'Small Missile Turret Operation'
p84
(ichar
Skill
p85
(dp86
g9
g22
sg11
g84
sg12
I0
sg13
(lp87
sg17
F0.03
sg18
I1
sbsS'Nova Knife Proficiency'
p88
(ichar
Skill
p89
(dp90
g9
g38
sg11
g88
sg12
I0
sg13
(lp91
(S'Nova Knife Proficiency'
p92
I5
tp93
asg17
F0.03
sg18
I5
sbsS'Swarm Launcher Proficiency'
p94
(ichar
Skill
p95
(dp96
g9
g38
sg11
g94
sg12
I0
sg13
(lp97
(S'Swarm Launcher Operation'
p98
I5
tp99
asg17
F0.03
sg18
I5
sbsS'Sniper Rifle Operation'
p100
(ichar
Skill
p101
(dp102
g9
g38
sg11
g100
sg12
I0
sg13
(lp103
(S'Weaponry'
p104
I1
tp105
asg17
F-0.05
sg18
I2
sbsS'Profile Analysis'
p106
(ichar
Skill
p107
(dp108
g9
g74
sg11
g106
sg12
I0
sg13
(lp109
(S'Sensor Upgrades'
p110
I3
tp111
asg17
F-0.05
sg18
I3
sbsS'Sidearm Weapon Rapid Reload Proficiency'
p112
(ichar
Skill
p113
(dp114
g9
g10
sg11
g112
sg12
I0
sg13
(lp115
(S'Sidearm Weapon Rapid Reload'
p116
I5
tp117
asg17
F-0.02
sg18
I4
sbsS'Light Weapon Sharpshooter Proficiency'
p118
(ichar
Skill
p119
(dp120
g9
g10
sg11
g118
sg12
I0
sg13
(lp121
(S'Light Weapon Sharpshooter'
p122
I5
tp123
asg17
F0.03
sg18
I5
sbsS'Vigor'
p124
(ichar
Skill
p125
(dp126
g9
g51
sg11
g124
sg12
I0
sg13
(lp127
(S'Dropsuit Command'
p128
I3
tp129
asg17
F0.05
sg18
I3
sbsS'Assault Rifle Proficiency'
p130
(ichar
Skill
p131
(dp132
g9
g38
sg11
g130
sg12
I0
sg13
(lp133
(S'Assault Rifle Operation'
p134
I5
tp135
asg17
F0.03
sg18
I5
sbsS'Heavy Machine Gun Proficiency'
p136
(ichar
Skill
p137
(dp138
g9
g38
sg11
g136
sg12
I0
sg13
(lp139
(S'Heavy Machine Gun Operation'
p140
I5
tp141
asg17
F0.03
sg18
I5
sbsS'Nova Knife Operation'
p142
(ichar
Skill
p143
(dp144
g9
g38
sg11
g142
sg12
I0
sg13
(lp145
(S'Weaponry'
p146
I1
tp147
asg17
F-0.05
sg18
I2
sbsS'Combat Engineering'
p148
(ichar
Skill
p149
(dp150
g9
S'engineering'
p151
sg11
g148
sg12
I0
sg13
(lp152
sg17
F0.05
sg18
I1
sbsS'Heavy Weapon Upgrades Proficiency'
p153
(ichar
Skill
p154
(dp155
g9
g10
sg11
g153
sg12
I0
sg13
(lp156
(S'Heavy Weapon Upgrades'
p157
I5
tp158
asg17
F-0.03
sg18
I6
sbsS'Forge Gun Operation'
p159
(ichar
Skill
p160
(dp161
g9
g38
sg11
g159
sg12
I0
sg13
(lp162
(S'Weaponry'
p163
I5
tp164
asg17
F-0.05
sg18
I2
sbsS'Submachine Gun Operation'
p165
(ichar
Skill
p166
(dp167
g9
g38
sg11
g165
sg12
I0
sg13
(lp168
(S'Weaponry'
p169
I1
tp170
asg17
F-0.05
sg18
I2
sbsS'Weaponry'
p171
(ichar
Skill
p172
(dp173
g9
g38
sg11
g171
sg12
I0
sg13
(lp174
sg17
F0.02
sg18
I1
sbsS'Shield Boost Systems'
p175
(ichar
Skill
p176
(dp177
g9
g151
sg11
g175
sg12
I0
sg13
(lp178
(S'Combat Engineering'
p179
I2
tp180
asg17
F0.03
sg18
I2
sbsS'Mass Driver Operation'
p181
(ichar
Skill
p182
(dp183
g9
g38
sg11
g181
sg12
I0
sg13
(lp184
(S'Weaponry'
p185
I2
tp186
asg17
F0.05
sg18
I2
sbsS'Large Missile Turret Proficiency'
p187
(ichar
Skill
p188
(dp189
g9
g22
sg11
g187
sg12
I0
sg13
(lp190
sg17
F0.02
sg18
I5
sbsS'Long Range Scanning'
p191
(ichar
Skill
p192
(dp193
g9
g74
sg11
g191
sg12
I0
sg13
(lp194
(S'Sensor Upgrades'
p195
I1
tp196
asg17
F0.05
sg18
I2
sbsS'Shield Control'
p197
(ichar
Skill
p198
(dp199
g9
g151
sg11
g197
sg12
I0
sg13
(lp200
(S'Shield Boost Systems'
p201
I4
tp202
asg17
F0.05
sg18
I3
sbsS'Light Weapon Rapid Reload'
p203
(ichar
Skill
p204
(dp205
g9
g10
sg11
g203
sg12
I0
sg13
(lp206
(S'Weaponry'
p207
I2
tp208
asg17
F-0.03
sg18
I2
sbsS'Sidearm Weapon Upgrades'
p209
(ichar
Skill
p210
(dp211
g9
g10
sg11
g209
sg12
I0
sg13
(lp212
sg17
F-0.05
sg18
I1
sbsS'Sidearm Weapon Upgrades Proficiency'
p213
(ichar
Skill
p214
(dp215
g9
g10
sg11
g213
sg12
I0
sg13
(lp216
(S'Sidearm Weapon Upgrades'
p217
I5
tp218
asg17
F-0.03
sg18
I4
sbsS'Heavy Weapon Sharpshooter Proficiency'
p219
(ichar
Skill
p220
(dp221
g9
g10
sg11
g219
sg12
I0
sg13
(lp222
(S'Heavy Weapon Sharpshooter'
p223
I5
tp224
asg17
F0.03
sg18
I6
sbsS'Sidearm Weapon Capacity Proficiency'
p225
(ichar
Skill
p226
(dp227
g9
g10
sg11
g225
sg12
I0
sg13
(lp228
(S'Sidearm Weapon Capacity'
p229
I5
tp230
asg17
F0.03
sg18
I4
sbsS'Light Weapon Capacity Proficiency'
p231
(ichar
Skill
p232
(dp233
g9
g10
sg11
g231
sg12
I0
sg13
(lp234
(S'Light Weapon Capacity'
p235
I5
tp236
asg17
F0.03
sg18
I5
sbsS'Heavy Weapon Upgrades'
p237
(ichar
Skill
p238
(dp239
g9
g10
sg11
g237
sg12
I0
sg13
(lp240
(S'Weaponry'
p241
I3
tp242
asg17
F-0.05
sg18
I3
sbsS'Forge Gun Proficiency'
p243
(ichar
Skill
p244
(dp245
g9
g38
sg11
g243
sg12
I0
sg13
(lp246
(S'Forge Gun Operation'
p247
I5
tp248
asg17
F0.03
sg18
I5
sbsS'Armor Upgrades'
p249
(ichar
Skill
p250
(dp251
g9
g27
sg11
g249
sg12
I0
sg13
(lp252
(S'Field Mechanics'
p253
I1
tp254
asg17
F-0.03
sg18
I2
sbsS'Light Weapon Rapid Reload Proficiency'
p255
(ichar
Skill
p256
(dp257
g9
g10
sg11
g255
sg12
I0
sg13
(lp258
(S'Light Weapon Rapid Reload'
p259
I5
tp260
asg17
F-0.02
sg18
I5
sbsS'Heavy Weapon Rapid Reload'
p261
(ichar
Skill
p262
(dp263
g9
g10
sg11
g261
sg12
I0
sg13
(lp264
(S'Weaponry'
p265
I3
tp266
asg17
F-0.03
sg18
I3
sbsS'Shotgun Operation'
p267
(ichar
Skill
p268
(dp269
g9
g38
sg11
g267
sg12
I0
sg13
(lp270
(S'Weaponry'
p271
I2
tp272
asg17
F-0.03
sg18
I2
sbsS'Large Hybrid Turret Operation'
p273
(ichar
Skill
p274
(dp275
g9
g22
sg11
g273
sg12
I0
sg13
(lp276
sg17
F0.03
sg18
I3
sbsS'Light Weapon Upgrades'
p277
(ichar
Skill
p278
(dp279
g9
g10
sg11
g277
sg12
I0
sg13
(lp280
(S'Weaponry'
p281
I2
tp282
asg17
F-0.05
sg18
I2
sbsS'Light Weapon Capacity'
p283
(ichar
Skill
p284
(dp285
g9
g10
sg11
g283
sg12
I0
sg13
(lp286
(S'Weaponry'
p287
I2
tp288
asg17
F0.05
sg18
I2
sbsS'Shotgun Proficiency'
p289
(ichar
Skill
p290
(dp291
g9
g38
sg11
g289
sg12
I0
sg13
(lp292
(S'Shotgun Operation'
p293
I5
tp294
asg17
F0.03
sg18
I5
sbsS'Heavy Weapon Capacity Proficiency'
p295
(ichar
Skill
p296
(dp297
g9
g10
sg11
g295
sg12
I0
sg13
(lp298
(S'Heavy Weapon Capacity'
p299
I5
tp300
asg17
F0.03
sg18
I6
sbsS'Powergrid Upgrades'
p301
(ichar
Skill
p302
(dp303
g9
g151
sg11
g301
sg12
I0
sg13
(lp304
(S'Combat Engineering'
p305
I2
tp306
asg17
F-0.05
sg18
I2
sbsS'Submachine Gun Proficiency'
p307
(ichar
Skill
p308
(dp309
g9
g38
sg11
g307
sg12
I0
sg13
(lp310
(S'Submachine Gun Operation'
p311
I1
tp312
asg17
F0.03
sg18
I5
sbsS'Small Missile Turret Proficiency'
p313
(ichar
Skill
p314
(dp315
g9
g22
sg11
g313
sg12
I0
sg13
(lp316
sg17
F0.02
sg18
I3
sbsS'Hand To Hand Combat'
p317
(ichar
Skill
p318
(dp319
g9
g38
sg11
g317
sg12
I0
sg13
(lp320
(S'Weaponry'
p321
I1
tp322
asg17
F0.1
sg18
I2
sbsS'Turret Operation'
p323
(ichar
Skill
p324
(dp325
g9
g22
sg11
g323
sg12
I0
sg13
(lp326
sg17
F0.02
sg18
I1
sbsS'Sidearm Weapon Rapid Reload'
p327
(ichar
Skill
p328
(dp329
g9
g10
sg11
g327
sg12
I0
sg13
(lp330
(S'Weaponry'
p331
I1
tp332
asg17
F-0.03
sg18
I1
sbsS'Nanocircuitry'
p333
(ichar
Skill
p334
(dp335
g9
g74
sg11
g333
sg12
I0
sg13
(lp336
(S'Circuitry'
p337
I3
tp338
asg17
F-0.05
sg18
I2
sbsS'Systems Hacking'
p339
(ichar
Skill
p340
(dp341
g9
g74
sg11
g339
sg12
I0
sg13
(lp342
(S'Circuitry'
p343
I4
tp344
asg17
F-0.05
sg18
I4
sbsS'Large Hybrid Turret Proficiency'
p345
(ichar
Skill
p346
(dp347
g9
g22
sg11
g345
sg12
I0
sg13
(lp348
sg17
F0.02
sg18
I5
sbsS'Field Mechanics'
p349
(ichar
Skill
p350
(dp351
g9
g27
sg11
g349
sg12
I0
sg13
(lp352
sg17
F0.05
sg18
I1
sbsS'Shield Enhancements'
p353
(ichar
Skill
p354
(dp355
g9
g151
sg11
g353
sg12
I0
sg13
(lp356
(S'Shield Boost Systems'
p357
I3
tp358
asg17
F-0.03
sg18
I2
sbsS'Sensor Upgrades'
p359
(ichar
Skill
p360
(dp361
g9
g74
sg11
g359
sg12
I0
sg13
(lp362
(S'Circuitry'
p363
I2
tp364
asg17
F-0.05
sg18
I2
sbsS'Sidearm Weapon Sharpshooter Proficiency'
p365
(ichar
Skill
p366
(dp367
g9
g10
sg11
g365
sg12
I0
sg13
(lp368
(S'Sidearm Weapon Sharpshooter'
p369
I5
tp370
asg17
F0.03
sg18
I4
sbsS'Scrambler Pistol Proficiency'
p371
(ichar
Skill
p372
(dp373
g9
g38
sg11
g371
sg12
I0
sg13
(lp374
(S'Scrambler Pistol Proficiency'
p375
I5
tp376
asg17
F0.03
sg18
I5
sbsS'Mass Driver Proficiency'
p377
(ichar
Skill
p378
(dp379
g9
g38
sg11
g377
sg12
I0
sg13
(lp380
(S'Mass Driver Operation'
p381
I5
tp382
asg17
F0.03
sg18
I5
sbsS'Circuitry'
p383
(ichar
Skill
p384
(dp385
g9
g74
sg11
g383
sg12
I0
sg13
(lp386
sg17
F0.05
sg18
I1
sbsS'Sidearm Weapon Sharpshooter'
p387
(ichar
Skill
p388
(dp389
g9
g10
sg11
g387
sg12
I0
sg13
(lp390
(S'Weaponry'
p391
I1
tp392
asg17
F0.05
sg18
I1
sbsS'Sidearm Weapon Capacity'
p393
(ichar
Skill
p394
(dp395
g9
g10
sg11
g393
sg12
I0
sg13
(lp396
(S'Weaponry'
p397
I1
tp398
asg17
F0.05
sg18
I1
sbsS'Shield Adaptation'
p399
(ichar
Skill
p400
(dp401
g9
g151
sg11
g399
sg12
I0
sg13
(lp402
(S'Shield Boost Systems'
p403
I3
tp404
asg17
F-0.03
sg18
I5
sbsS'Heavy Weapon Sharpshooter'
p405
(ichar
Skill
p406
(dp407
g9
g10
sg11
g405
sg12
I0
sg13
(lp408
(S'Weaponry'
p409
I3
tp410
asg17
F0.05
sg18
I3
sbsS'Light Weapon Sharpshooter'
p411
(ichar
Skill
p412
(dp413
g9
g10
sg11
g411
sg12
I0
sg13
(lp414
(S'Weaponry'
p415
I2
tp416
asg17
F0.05
sg18
I2
sbsS'Heavy Weapon Rapid Reload Proficiency'
p417
(ichar
Skill
p418
(dp419
g9
g10
sg11
g417
sg12
I0
sg13
(lp420
(S'Heavy Weapon Rapid Reload'
p421
I5
tp422
asg17
F-0.02
sg18
I6
sbsS'Dropsuit Command'
p423
(ichar
Skill
p424
(dp425
g9
S'dropsuit_command'
p426
sg11
g423
sg12
I0
sg13
(lp427
sg17
F-0.05
sg18
I1
sbsS'Sniper Rifle Proficiency'
p428
(ichar
Skill
p429
(dp430
g9
g38
sg11
g428
sg12
I0
sg13
(lp431
(S'Sniper Rifle Operation'
p432
I5
tp433
asg17
F0.03
sg18
I5
sbsS'Swarm Launcher Operation'
p434
(ichar
Skill
p435
(dp436
g9
g38
sg11
g434
sg12
I0
sg13
(lp437
(S'Weaponry'
p438
I3
tp439
asg17
F0.05
sg18
I2
sbssg11
S'No Skills'
p440
sS'skillpoints_used'
p441
I0
sS'leveled_skill_effects'
p442
(dp443
sbs.